(i__main__
Student
p0
(dp1
S'marks1'
p2
F45.0
sS'marks2'
p3
F45.0
sS'marks3'
p4
F99.0
sS'name'
p5
S'Rohan'
p6
sS'rollno'
p7
I13
sb.(i__main__
Student
p0
(dp1
S'marks1'
p2
F98.0
sS'marks2'
p3
F78.0
sS'marks3'
p4
F89.0
sS'name'
p5
S'Nitya'
p6
sS'rollno'
p7
I15
sb.